LIBRARY embb_base_cpp
EXPORTS
??0CoreSet@base@embb@@QEAA@XZ
??0CoreSet@base@embb@@QEAA@_N@Z
??0CoreSet@base@embb@@QEAA@AEBV012@@Z
?Add@CoreSet@base@embb@@QEAAXI@Z
?Remove@CoreSet@base@embb@@QEAAXI@Z
?Reset@CoreSet@base@embb@@QEAAX_N@Z
?IsContained@CoreSet@base@embb@@QEBA_NI@Z
?Count@CoreSet@base@embb@@QEBAIXZ
?CountAvailable@CoreSet@base@embb@@SAIXZ
??ICoreSet@base@embb@@QEBA?AV012@AEBV012@@Z
??UCoreSet@base@embb@@QEBA?AV012@AEBV012@@Z
??_4CoreSet@base@embb@@QEAAAEAV012@AEBV012@@Z
??_5CoreSet@base@embb@@QEAAAEAV012@AEBV012@@Z
??1MutexBase@internal@base@embb@@UEAA@XZ
?Lock@MutexBase@internal@base@embb@@QEAAXXZ
?TryLock@MutexBase@internal@base@embb@@QEAA_NXZ
?Unlock@MutexBase@internal@base@embb@@QEAAXXZ
??0Mutex@base@embb@@QEAA@XZ
??0RecursiveMutex@base@embb@@QEAA@XZ
??0ConditionVariable@base@embb@@QEAA@XZ
?NotifyOne@ConditionVariable@base@embb@@QEAAXXZ
?NotifyAll@ConditionVariable@base@embb@@QEAAXXZ
?Wait@ConditionVariable@base@embb@@QEAAXAEAV?$UniqueLock@VMutex@base@embb@@@23@@Z
?WaitUntil@ConditionVariable@base@embb@@QEAA_NAEAV?$UniqueLock@VMutex@base@embb@@@23@AEBVTime@23@@Z
??0Spinlock@base@embb@@QEAA@XZ
??1Spinlock@base@embb@@QEAA@XZ
?Lock@Spinlock@base@embb@@QEAAXXZ
?TryLock@Spinlock@base@embb@@QEAA_NI@Z
?Unlock@Spinlock@base@embb@@QEAAXXZ
?SetAndCheck@Seconds@internal@base@embb@@SAXAEAUembb_duration_t@@_K@Z
?Get@Seconds@internal@base@embb@@SA_KAEBUembb_duration_t@@@Z
?Min@Seconds@internal@base@embb@@SA_KXZ
?SetAndCheck@Milliseconds@internal@base@embb@@SAXAEAUembb_duration_t@@_K@Z
?Get@Milliseconds@internal@base@embb@@SA_KAEBUembb_duration_t@@@Z
?Min@Milliseconds@internal@base@embb@@SA_KXZ
?SetAndCheck@Microseconds@internal@base@embb@@SAXAEAUembb_duration_t@@_K@Z
?Get@Microseconds@internal@base@embb@@SA_KAEBUembb_duration_t@@@Z
?Min@Microseconds@internal@base@embb@@SA_KXZ
?SetAndCheck@Nanoseconds@internal@base@embb@@SAXAEAUembb_duration_t@@_K@Z
?Get@Nanoseconds@internal@base@embb@@SA_KAEBUembb_duration_t@@@Z
?Min@Nanoseconds@internal@base@embb@@SA_KXZ
??0Time@base@embb@@QEAA@XZ
?CheckExceptions@Tick@internal@base@embb@@SAXHPEBD@Z
?SetLogLevel@Log@base@embb@@SAXW4embb_log_level_t@@@Z
?SetLogFunction@Log@base@embb@@SAXPEAXP6AX0PEBD@Z@Z
?Trace@Log@base@embb@@SAXPEBD0ZZ
?Info@Log@base@embb@@SAXPEBD0ZZ
?Warning@Log@base@embb@@SAXPEBD0ZZ
?Error@Log@base@embb@@SAXPEBD0ZZ
?Allocate@Allocation@base@embb@@SAPEAX_K@Z
?Free@Allocation@base@embb@@SAXPEAX@Z
?AllocateCacheAligned@Allocation@base@embb@@SAPEAX_K@Z
?FreeAligned@Allocation@base@embb@@SAXPEAX@Z
?AllocatedBytes@Allocation@base@embb@@SA_KXZ
?GetThreadsMaxCount@Thread@base@embb@@SAIXZ
?SetThreadsMaxCount@Thread@base@embb@@SAXI@Z
?Join@Thread@base@embb@@QEAAXXZ
?GetID@Thread@base@embb@@QEAA?AVID@123@XZ
?CurrentYield@Thread@base@embb@@SAXXZ
??8base@embb@@YA_NVID@Thread@01@0@Z
