LIBRARY embb_base_cpp
EXPORTS
??0CoreSet@base@embb@@QAE@XZ
??0CoreSet@base@embb@@QAE@_N@Z
??0CoreSet@base@embb@@QAE@ABV012@@Z
?Add@CoreSet@base@embb@@QAEXI@Z
?Remove@CoreSet@base@embb@@QAEXI@Z
?Reset@CoreSet@base@embb@@QAEX_N@Z
?IsContained@CoreSet@base@embb@@QBE_NI@Z
?Count@CoreSet@base@embb@@QBEIXZ
?CountAvailable@CoreSet@base@embb@@SAIXZ
??ICoreSet@base@embb@@QBE?AV012@ABV012@@Z
??UCoreSet@base@embb@@QBE?AV012@ABV012@@Z
??_4CoreSet@base@embb@@QAEAAV012@ABV012@@Z
??_5CoreSet@base@embb@@QAEAAV012@ABV012@@Z
??1MutexBase@internal@base@embb@@UAE@XZ
?Lock@MutexBase@internal@base@embb@@QAEXXZ
?TryLock@MutexBase@internal@base@embb@@QAE_NXZ
?Unlock@MutexBase@internal@base@embb@@QAEXXZ
??0Mutex@base@embb@@QAE@XZ
??0RecursiveMutex@base@embb@@QAE@XZ
??0ConditionVariable@base@embb@@QAE@XZ
?NotifyOne@ConditionVariable@base@embb@@QAEXXZ
?NotifyAll@ConditionVariable@base@embb@@QAEXXZ
?Wait@ConditionVariable@base@embb@@QAEXAAV?$UniqueLock@VMutex@base@embb@@@23@@Z
?WaitUntil@ConditionVariable@base@embb@@QAE_NAAV?$UniqueLock@VMutex@base@embb@@@23@ABVTime@23@@Z
??0Spinlock@base@embb@@QAE@XZ
??1Spinlock@base@embb@@QAE@XZ
?Lock@Spinlock@base@embb@@QAEXXZ
?TryLock@Spinlock@base@embb@@QAE_NI@Z
?Unlock@Spinlock@base@embb@@QAEXXZ
?SetAndCheck@Seconds@internal@base@embb@@SAXAAUembb_duration_t@@_K@Z
?Get@Seconds@internal@base@embb@@SA_KABUembb_duration_t@@@Z
?Min@Seconds@internal@base@embb@@SA_KXZ
?SetAndCheck@Milliseconds@internal@base@embb@@SAXAAUembb_duration_t@@_K@Z
?Get@Milliseconds@internal@base@embb@@SA_KABUembb_duration_t@@@Z
?Min@Milliseconds@internal@base@embb@@SA_KXZ
?SetAndCheck@Microseconds@internal@base@embb@@SAXAAUembb_duration_t@@_K@Z
?Get@Microseconds@internal@base@embb@@SA_KABUembb_duration_t@@@Z
?Min@Microseconds@internal@base@embb@@SA_KXZ
?SetAndCheck@Nanoseconds@internal@base@embb@@SAXAAUembb_duration_t@@_K@Z
?Get@Nanoseconds@internal@base@embb@@SA_KABUembb_duration_t@@@Z
?Min@Nanoseconds@internal@base@embb@@SA_KXZ
??0Time@base@embb@@QAE@XZ
?CheckExceptions@Tick@internal@base@embb@@SAXHPBD@Z
?SetLogLevel@Log@base@embb@@SAXW4embb_log_level_t@@@Z
?SetLogFunction@Log@base@embb@@SAXPAXP6AX0PBD@Z@Z
?Trace@Log@base@embb@@SAXPBD0ZZ
?Info@Log@base@embb@@SAXPBD0ZZ
?Warning@Log@base@embb@@SAXPBD0ZZ
?Error@Log@base@embb@@SAXPBD0ZZ
?Allocate@Allocation@base@embb@@SAPAXI@Z
?Free@Allocation@base@embb@@SAXPAX@Z
?AllocateCacheAligned@Allocation@base@embb@@SAPAXI@Z
?FreeAligned@Allocation@base@embb@@SAXPAX@Z
?AllocatedBytes@Allocation@base@embb@@SAIXZ
?GetThreadsMaxCount@Thread@base@embb@@SAIXZ
?SetThreadsMaxCount@Thread@base@embb@@SAXI@Z
?Join@Thread@base@embb@@QAEXXZ
?GetID@Thread@base@embb@@QAE?AVID@123@XZ
?CurrentYield@Thread@base@embb@@SAXXZ
??8base@embb@@YA_NVID@Thread@01@0@Z
